target datalayout = "e-m:e-p270:32:32-p271:32:32-p272:64:64-i64:64-i128:128-f80:128-n8:16:32:64-S128"
target triple = "x86_64-pc-linux-gnu"

%struct.Shared = type { i32 }

; Function Attrs: mustprogress nounwind uwtable
define i32 @_Z13create_sharedv() #0 {
  %1 = alloca %struct.Shared, align 4
  %2 = getelementptr inbounds nuw %struct.Shared, ptr %1, i32 0, i32 0
  store i32 123, ptr %2, align 4, !tbaa !3
  %3 = getelementptr inbounds nuw %struct.Shared, ptr %1, i32 0, i32 0
  %4 = load i32, ptr %3, align 4
  ret i32 %4
}

; Function Attrs: mustprogress nounwind uwtable
define noundef zeroext i1 @_Z12check_sharedRK6Shared(ptr noundef nonnull align 4 dereferenceable(4) %0) #0 {
  %2 = alloca ptr, align 8
  store ptr %0, ptr %2, align 8, !tbaa !8
  %3 = load ptr, ptr %2, align 8, !tbaa !8
  %4 = getelementptr inbounds nuw %struct.Shared, ptr %3, i32 0, i32 0
  %5 = load i32, ptr %4, align 4, !tbaa !3
  %6 = icmp eq i32 %5, 123
  ret i1 %6
}


!llvm.module.flags = !{!0, !1, !2}

!0 = !{i32 1, !"wchar_size", i32 4}
!1 = !{i32 8, !"PIC Level", i32 2}
!2 = !{i32 7, !"uwtable", i32 2}
!3 = !{!4, !5, i64 0}
!4 = !{!"_ZTS6Shared", !5, i64 0}
!5 = !{!"int", !6, i64 0}
!6 = !{!"omnipotent char", !7, i64 0}
!7 = !{!"Simple C++ TBAA"}
!8 = !{!9, !9, i64 0}
!9 = !{!"p1 _ZTS6Shared", !10, i64 0}
!10 = !{!"any pointer", !6, i64 0}
